ARM GAS  C:\Users\RRAMIR~1\AppData\Local\Temp\ccf3k4hn.s 			page 1


   1              		.syntax unified
   2              		.cpu cortex-m3
   3              		.fpu softvfp
   4              		.eabi_attribute 20, 1
   5              		.eabi_attribute 21, 1
   6              		.eabi_attribute 23, 3
   7              		.eabi_attribute 24, 1
   8              		.eabi_attribute 25, 1
   9              		.eabi_attribute 26, 1
  10              		.eabi_attribute 30, 1
  11              		.eabi_attribute 34, 1
  12              		.eabi_attribute 18, 4
  13              		.thumb
  14              		.syntax unified
  15              		.file	"main.c"
  16              		.text
  17              	.Ltext0:
  18              		.cfi_sections	.debug_frame
  19              		.section	.text.main,"ax",%progbits
  20              		.align	2
  21              		.global	main
  22              		.thumb
  23              		.thumb_func
  24              		.type	main, %function
  25              	main:
  26              	.LFB64:
  27              		.file 1 "main.c"
   1:main.c        **** #include <project.h>
   2:main.c        **** #include "stdio.h"
   3:main.c        **** 
   4:main.c        **** #define TRANSMIT_BUFFER_SIZE 256
   5:main.c        **** 
   6:main.c        **** char transmitBuffer[TRANSMIT_BUFFER_SIZE]; 
   7:main.c        **** 
   8:main.c        **** int main(void)
   9:main.c        **** {
  28              		.loc 1 9 0
  29              		.cfi_startproc
  30              		@ args = 0, pretend = 0, frame = 0
  31              		@ frame_needed = 0, uses_anonymous_args = 0
  32 0000 38B5     		push	{r3, r4, r5, lr}
  33              		.cfi_def_cfa_offset 16
  34              		.cfi_offset 3, -16
  35              		.cfi_offset 4, -12
  36              		.cfi_offset 5, -8
  37              		.cfi_offset 14, -4
  10:main.c        ****     CyGlobalIntEnable; /* Enable global interrupts. */
  38              		.loc 1 10 0
  39              		.syntax unified
  40              	@ 10 "main.c" 1
  41 0002 62B6     		CPSIE   i
  42              	@ 0 "" 2
  11:main.c        ****     VDAC8_1_Start();
  43              		.loc 1 11 0
  44              		.thumb
  45              		.syntax unified
  46 0004 FFF7FEFF 		bl	VDAC8_1_Start
ARM GAS  C:\Users\RRAMIR~1\AppData\Local\Temp\ccf3k4hn.s 			page 2


  47              	.LVL0:
  12:main.c        ****     UART_1_Start(); /*Iniciamos comunicaci贸n UART*/
  48              		.loc 1 12 0
  49 0008 FFF7FEFF 		bl	UART_1_Start
  50              	.LVL1:
  13:main.c        ****     ADC_Start();
  51              		.loc 1 13 0
  52 000c FFF7FEFF 		bl	ADC_Start
  53              	.LVL2:
  14:main.c        ****     uint8 i=0;
  54              		.loc 1 14 0
  55 0010 0024     		movs	r4, #0
  56              	.LVL3:
  57              	.L2:
  15:main.c        ****     int16 Pot_val; //variable en donde almacenamos el
  16:main.c        ****                    // dato del ADC
  17:main.c        **** 
  18:main.c        ****     for(;;)
  19:main.c        ****     {
  20:main.c        ****        CyDelay(10);
  58              		.loc 1 20 0 discriminator 1
  59 0012 0A20     		movs	r0, #10
  60 0014 FFF7FEFF 		bl	CyDelay
  61              	.LVL4:
  21:main.c        ****        VDAC8_1_SetValue(i);
  62              		.loc 1 21 0 discriminator 1
  63 0018 2046     		mov	r0, r4
  64 001a FFF7FEFF 		bl	VDAC8_1_SetValue
  65              	.LVL5:
  22:main.c        ****        ADC_StartConvert(); // Inicia la conversi贸n A/D
  66              		.loc 1 22 0 discriminator 1
  67 001e FFF7FEFF 		bl	ADC_StartConvert
  68              	.LVL6:
  23:main.c        ****        ADC_IsEndConversion(ADC_WAIT_FOR_RESULT); // Espera a que la conversi贸n haya finalizado
  69              		.loc 1 23 0 discriminator 1
  70 0022 0020     		movs	r0, #0
  71 0024 FFF7FEFF 		bl	ADC_IsEndConversion
  72              	.LVL7:
  24:main.c        ****        Pot_val = ADC_GetResult16(); //Guarda el resultado de la conversi贸n
  73              		.loc 1 24 0 discriminator 1
  74 0028 FFF7FEFF 		bl	ADC_GetResult16
  75              	.LVL8:
  25:main.c        ****        sprintf(transmitBuffer,"%d\r\n",Pot_val);  // Convierte de entero a cadena para poder enviar
  76              		.loc 1 25 0 discriminator 1
  77 002c 054D     		ldr	r5, .L4
  78 002e 0246     		mov	r2, r0
  79 0030 0549     		ldr	r1, .L4+4
  80 0032 2846     		mov	r0, r5
  81              	.LVL9:
  82 0034 FFF7FEFF 		bl	sprintf
  83              	.LVL10:
  26:main.c        ****        UART_1_PutString(transmitBuffer); 
  84              		.loc 1 26 0 discriminator 1
  85 0038 2846     		mov	r0, r5
  86 003a FFF7FEFF 		bl	UART_1_PutString
  87              	.LVL11:
  27:main.c        ****        i++;
ARM GAS  C:\Users\RRAMIR~1\AppData\Local\Temp\ccf3k4hn.s 			page 3


  88              		.loc 1 27 0 discriminator 1
  89 003e 0134     		adds	r4, r4, #1
  90              	.LVL12:
  91 0040 E4B2     		uxtb	r4, r4
  92              	.LVL13:
  93 0042 E6E7     		b	.L2
  94              	.L5:
  95              		.align	2
  96              	.L4:
  97 0044 00000000 		.word	transmitBuffer
  98 0048 00000000 		.word	.LC0
  99              		.cfi_endproc
 100              	.LFE64:
 101              		.size	main, .-main
 102              		.comm	transmitBuffer,256,4
 103              		.section	.rodata.str1.4,"aMS",%progbits,1
 104              		.align	2
 105              	.LC0:
 106 0000 25640D0A 		.ascii	"%d\015\012\000"
 106      00
 107              		.text
 108              	.Letext0:
 109              		.file 2 "c:\\program files (x86)\\cypress\\psoc creator\\4.3\\psoc creator\\import\\gnu\\arm\\5.4.
 110              		.file 3 "c:\\program files (x86)\\cypress\\psoc creator\\4.3\\psoc creator\\import\\gnu\\arm\\5.4.
 111              		.file 4 "Generated_Source\\PSoC5/cytypes.h"
 112              		.file 5 "Generated_Source\\PSoC5/core_cm3.h"
 113              		.file 6 "Generated_Source\\PSoC5/VDAC8_1.h"
 114              		.file 7 "Generated_Source\\PSoC5/UART_1.h"
 115              		.file 8 "Generated_Source\\PSoC5/ADC.h"
 116              		.file 9 "Generated_Source\\PSoC5/CyLib.h"
 117              		.file 10 "c:\\program files (x86)\\cypress\\psoc creator\\4.3\\psoc creator\\import\\gnu\\arm\\5.4